target datalayout = "e-m:e-p270:32:32-p271:32:32-p272:64:64-i64:64-i128:128-f80:128-n8:16:32:64-S128"
target triple = "x86_64-pc-linux-gnu"

%struct.Hacl_Hash_SHA3_hash_buf_s = type { i8, ptr }
%struct.Hacl_Hash_SHA3_state_t_s = type { %struct.Hacl_Hash_SHA3_hash_buf_s, ptr, i64 }
%struct.hash_buf2_s = type { %struct.Hacl_Hash_SHA3_hash_buf_s, %struct.Hacl_Hash_SHA3_hash_buf_s }

@.str = private unnamed_addr constant [70 x i8] c"Maximum allocatable size exceeded, aborting before overflow at %s:%d\0A\00", align 1
@.str.1 = private unnamed_addr constant [42 x i8] c"../cpython/Modules/_hacl/Hacl_Hash_SHA3.c\00", align 1
@stderr = external global ptr, align 8
@.str.2 = private unnamed_addr constant [35 x i8] c"KaRaMeL incomplete match at %s:%d\0A\00", align 1

; Function Attrs: nounwind uwtable
define internal i32 @block_len(i8 noundef zeroext %0) #0 {
  %2 = alloca i32, align 4
  %3 = alloca i8, align 1
  store i8 %0, ptr %3, align 1, !tbaa !3
  %4 = load i8, ptr %3, align 1, !tbaa !3
  %5 = zext i8 %4 to i32
  switch i32 %5, label %12 [
    i32 9, label %6
    i32 8, label %7
    i32 10, label %8
    i32 11, label %9
    i32 12, label %10
    i32 13, label %11
  ]

6:                                                ; preds = %1
  store i32 144, ptr %2, align 4
  br label %15

7:                                                ; preds = %1
  store i32 136, ptr %2, align 4
  br label %15

8:                                                ; preds = %1
  store i32 104, ptr %2, align 4
  br label %15

9:                                                ; preds = %1
  store i32 72, ptr %2, align 4
  br label %15

10:                                               ; preds = %1
  store i32 168, ptr %2, align 4
  br label %15

11:                                               ; preds = %1
  store i32 136, ptr %2, align 4
  br label %15

12:                                               ; preds = %1
  %13 = load ptr, ptr @stderr, align 8, !tbaa !15
  %14 = call i32 (ptr, ptr, ...) @fprintf(ptr noundef %13, ptr noundef @.str.2, ptr noundef @.str.1, i32 noundef 203) #10
  call void @exit(i32 noundef 253) #11
  unreachable

15:                                               ; preds = %11, %10, %9, %8, %7, %6
  %16 = load i32, ptr %2, align 4
  ret i32 %16
}

; Function Attrs: nounwind uwtable
define hidden ptr @python_hashlib_Hacl_Hash_SHA3_copy(ptr noundef %0) #0 {
  %2 = alloca ptr, align 8
  %3 = alloca %struct.Hacl_Hash_SHA3_state_t_s, align 8
  %4 = alloca %struct.Hacl_Hash_SHA3_hash_buf_s, align 8
  %5 = alloca ptr, align 8
  %6 = alloca i64, align 8
  %7 = alloca i8, align 1
  %8 = alloca ptr, align 8
  %9 = alloca ptr, align 8
  %10 = alloca %struct.Hacl_Hash_SHA3_hash_buf_s, align 8
  %11 = alloca %struct.hash_buf2_s, align 8
  %12 = alloca ptr, align 8
  %13 = alloca ptr, align 8
  %14 = alloca %struct.Hacl_Hash_SHA3_state_t_s, align 8
  %15 = alloca ptr, align 8
  store ptr %0, ptr %2, align 8, !tbaa !28
  call void @llvm.lifetime.start.p0(i64 32, ptr %3) #10
  %16 = load ptr, ptr %2, align 8, !tbaa !28
  call void @llvm.memcpy.p0.p0.i64(ptr align 8 %3, ptr align 8 %16, i64 32, i1 false), !tbaa.struct !37
  call void @llvm.lifetime.start.p0(i64 16, ptr %4) #10
  %17 = getelementptr inbounds nuw %struct.Hacl_Hash_SHA3_state_t_s, ptr %3, i32 0, i32 0
  call void @llvm.memcpy.p0.p0.i64(ptr align 8 %4, ptr align 8 %17, i64 16, i1 false), !tbaa.struct !30
  call void @llvm.lifetime.start.p0(i64 8, ptr %5) #10
  %18 = getelementptr inbounds nuw %struct.Hacl_Hash_SHA3_state_t_s, ptr %3, i32 0, i32 1
  %19 = load ptr, ptr %18, align 8, !tbaa !34
  store ptr %19, ptr %5, align 8, !tbaa !9
  call void @llvm.lifetime.start.p0(i64 8, ptr %6) #10
  %20 = getelementptr inbounds nuw %struct.Hacl_Hash_SHA3_state_t_s, ptr %3, i32 0, i32 2
  %21 = load i64, ptr %20, align 8, !tbaa !36
  store i64 %21, ptr %6, align 8, !tbaa !17
  call void @llvm.lifetime.start.p0(i64 1, ptr %7) #10
  %22 = getelementptr inbounds nuw %struct.Hacl_Hash_SHA3_hash_buf_s, ptr %4, i32 0, i32 0
  %23 = load i8, ptr %22, align 8, !tbaa !31
  store i8 %23, ptr %7, align 1, !tbaa !3
  br label %24

24:                                               ; preds = %1
  %25 = load i8, ptr %7, align 1, !tbaa !3
  %26 = call i32 @block_len(i8 noundef zeroext %25)
  %27 = zext i32 %26 to i64
  %28 = icmp ugt i64 %27, -1
  br i1 %28, label %29, label %31

29:                                               ; preds = %24
  %30 = call i32 (ptr, ...) @printf(ptr noundef @.str, ptr noundef @.str.1, i32 noundef 595)
  call void @exit(i32 noundef 253) #11
  unreachable

31:                                               ; preds = %24
  br label %32

32:                                               ; preds = %31
  br label %33

33:                                               ; preds = %32
  call void @llvm.lifetime.start.p0(i64 8, ptr %8) #10
  %34 = load i8, ptr %7, align 1, !tbaa !3
  %35 = call i32 @block_len(i8 noundef zeroext %34)
  %36 = zext i32 %35 to i64
  %37 = call noalias ptr @calloc(i64 noundef %36, i64 noundef 1) #12
  store ptr %37, ptr %8, align 8, !tbaa !9
  %38 = load ptr, ptr %8, align 8, !tbaa !9
  %39 = load ptr, ptr %5, align 8, !tbaa !9
  %40 = load i8, ptr %7, align 1, !tbaa !3
  %41 = call i32 @block_len(i8 noundef zeroext %40)
  %42 = zext i32 %41 to i64
  %43 = mul i64 %42, 1
  call void @llvm.memcpy.p0.p0.i64(ptr align 1 %38, ptr align 1 %39, i64 %43, i1 false)
  call void @llvm.lifetime.start.p0(i64 8, ptr %9) #10
  %44 = call noalias ptr @calloc(i64 noundef 25, i64 noundef 8) #12
  store ptr %44, ptr %9, align 8, !tbaa !6
  call void @llvm.lifetime.start.p0(i64 16, ptr %10) #10
  %45 = getelementptr inbounds nuw %struct.Hacl_Hash_SHA3_hash_buf_s, ptr %10, i32 0, i32 0
  %46 = load i8, ptr %7, align 1, !tbaa !3
  store i8 %46, ptr %45, align 8, !tbaa !31
  %47 = getelementptr i8, ptr %10, i64 1
  call void @llvm.memset.p0.i64(ptr align 1 %47, i8 0, i64 7, i1 false)
  %48 = getelementptr inbounds nuw %struct.Hacl_Hash_SHA3_hash_buf_s, ptr %10, i32 0, i32 1
  %49 = load ptr, ptr %9, align 8, !tbaa !6
  store ptr %49, ptr %48, align 8, !tbaa !33
  call void @llvm.lifetime.start.p0(i64 32, ptr %11) #10
  %50 = getelementptr inbounds nuw %struct.hash_buf2_s, ptr %11, i32 0, i32 0
  call void @llvm.memcpy.p0.p0.i64(ptr align 8 %50, ptr align 8 %4, i64 16, i1 false), !tbaa.struct !30
  %51 = getelementptr inbounds nuw %struct.hash_buf2_s, ptr %11, i32 0, i32 1
  call void @llvm.memcpy.p0.p0.i64(ptr align 8 %51, ptr align 8 %10, i64 16, i1 false), !tbaa.struct !30
  call void @llvm.lifetime.start.p0(i64 8, ptr %12) #10
  %52 = getelementptr inbounds nuw %struct.hash_buf2_s, ptr %11, i32 0, i32 1
  %53 = getelementptr inbounds nuw %struct.Hacl_Hash_SHA3_hash_buf_s, ptr %52, i32 0, i32 1
  %54 = load ptr, ptr %53, align 8, !tbaa !38
  store ptr %54, ptr %12, align 8, !tbaa !6
  call void @llvm.lifetime.start.p0(i64 8, ptr %13) #10
  %55 = getelementptr inbounds nuw %struct.hash_buf2_s, ptr %11, i32 0, i32 0
  %56 = getelementptr inbounds nuw %struct.Hacl_Hash_SHA3_hash_buf_s, ptr %55, i32 0, i32 1
  %57 = load ptr, ptr %56, align 8, !tbaa !40
  store ptr %57, ptr %13, align 8, !tbaa !6
  %58 = load ptr, ptr %12, align 8, !tbaa !6
  %59 = load ptr, ptr %13, align 8, !tbaa !6
  call void @llvm.memcpy.p0.p0.i64(ptr align 8 %58, ptr align 8 %59, i64 200, i1 false)
  call void @llvm.lifetime.start.p0(i64 32, ptr %14) #10
  %60 = getelementptr inbounds nuw %struct.Hacl_Hash_SHA3_state_t_s, ptr %14, i32 0, i32 0
  call void @llvm.memcpy.p0.p0.i64(ptr align 8 %60, ptr align 8 %10, i64 16, i1 false), !tbaa.struct !30
  %61 = getelementptr inbounds nuw %struct.Hacl_Hash_SHA3_state_t_s, ptr %14, i32 0, i32 1
  %62 = load ptr, ptr %8, align 8, !tbaa !9
  store ptr %62, ptr %61, align 8, !tbaa !34
  %63 = getelementptr inbounds nuw %struct.Hacl_Hash_SHA3_state_t_s, ptr %14, i32 0, i32 2
  %64 = load i64, ptr %6, align 8, !tbaa !17
  store i64 %64, ptr %63, align 8, !tbaa !36
  call void @llvm.lifetime.start.p0(i64 8, ptr %15) #10
  %65 = call noalias ptr @malloc(i64 noundef 32) #13
  store ptr %65, ptr %15, align 8, !tbaa !28
  %66 = load ptr, ptr %15, align 8, !tbaa !28
  %67 = getelementptr %struct.Hacl_Hash_SHA3_state_t_s, ptr %66, i64 0
  call void @llvm.memcpy.p0.p0.i64(ptr align 8 %67, ptr align 8 %14, i64 32, i1 false), !tbaa.struct !37
  %68 = load ptr, ptr %15, align 8, !tbaa !28
  call void @llvm.lifetime.end.p0(i64 8, ptr %15) #10
  call void @llvm.lifetime.end.p0(i64 32, ptr %14) #10
  call void @llvm.lifetime.end.p0(i64 8, ptr %13) #10
  call void @llvm.lifetime.end.p0(i64 8, ptr %12) #10
  call void @llvm.lifetime.end.p0(i64 32, ptr %11) #10
  call void @llvm.lifetime.end.p0(i64 16, ptr %10) #10
  call void @llvm.lifetime.end.p0(i64 8, ptr %9) #10
  call void @llvm.lifetime.end.p0(i64 8, ptr %8) #10
  call void @llvm.lifetime.end.p0(i64 1, ptr %7) #10
  call void @llvm.lifetime.end.p0(i64 8, ptr %6) #10
  call void @llvm.lifetime.end.p0(i64 8, ptr %5) #10
  call void @llvm.lifetime.end.p0(i64 16, ptr %4) #10
  call void @llvm.lifetime.end.p0(i64 32, ptr %3) #10
  ret ptr %68
}