; Function Attrs: nofree nounwind uwtable
define hidden noalias noundef ptr @python_hashlib_Hacl_Hash_SHA3_copy(ptr noundef readonly captures(none) %0) local_unnamed_addr #0 {
  %.sroa.0.0.copyload26 = load i64, ptr %0, align 8
  %.sroa.427.0..sroa_idx = getelementptr inbounds nuw i8, ptr %0, i64 8
  %.sroa.427.0.copyload = load ptr, ptr %.sroa.427.0..sroa_idx, align 8, !tbaa !20
  %.sroa.528.0..sroa_idx = getelementptr inbounds nuw i8, ptr %0, i64 16
  %.sroa.528.0.copyload = load ptr, ptr %.sroa.528.0..sroa_idx, align 8, !tbaa !22
  %.sroa.629.0..sroa_idx = getelementptr inbounds nuw i8, ptr %0, i64 24
  %.sroa.629.0.copyload = load i64, ptr %.sroa.629.0..sroa_idx, align 8, !tbaa !10
  %.sroa.0.sroa.025.0.extract.trunc = trunc i64 %.sroa.0.0.copyload26 to i8
  %.sroa.0.sroa.025.0.extract.trunc.off = add i8 %.sroa.0.sroa.025.0.extract.trunc, -8
  %switch = icmp ult i8 %.sroa.0.sroa.025.0.extract.trunc.off, 6
  br i1 %switch, label %block_len.exit, label %2

2:                                                ; preds = %1
  %3 = load ptr, ptr @stderr, align 8, !tbaa !3
  %4 = tail call i32 (ptr, ptr, ...) @fprintf(ptr noundef %3, ptr noundef nonnull @.str.2, ptr noundef nonnull @.str.1, i32 noundef 203) #17
  tail call void @exit(i32 noundef 253) #18
  unreachable

block_len.exit:                                   ; preds = %1
  switch i8 %.sroa.0.sroa.025.0.extract.trunc, label %default.unreachable [
    i8 9, label %block_len.exit32.thread
    i8 8, label %block_len.exit32
    i8 10, label %block_len.exit32.thread36
    i8 11, label %block_len.exit32.thread38
    i8 12, label %block_len.exit32.thread40
    i8 13, label %block_len.exit32
  ]

block_len.exit32.thread:                          ; preds = %block_len.exit
  %5 = tail call noalias dereferenceable_or_null(144) ptr @calloc(i64 noundef 144, i64 noundef 1) #20
  br label %block_len.exit34

block_len.exit32.thread36:                        ; preds = %block_len.exit
  %6 = tail call noalias dereferenceable_or_null(104) ptr @calloc(i64 noundef 104, i64 noundef 1) #20
  br label %block_len.exit34

block_len.exit32.thread38:                        ; preds = %block_len.exit
  %7 = tail call noalias dereferenceable_or_null(72) ptr @calloc(i64 noundef 72, i64 noundef 1) #20
  br label %block_len.exit34

block_len.exit32.thread40:                        ; preds = %block_len.exit
  %8 = tail call noalias dereferenceable_or_null(168) ptr @calloc(i64 noundef 168, i64 noundef 1) #20
  br label %block_len.exit34

default.unreachable:                              ; preds = %block_len.exit
  unreachable

block_len.exit32:                                 ; preds = %block_len.exit, %block_len.exit
  %9 = tail call noalias dereferenceable_or_null(136) ptr @calloc(i64 noundef 136, i64 noundef 1) #20
  switch i8 %.sroa.0.sroa.025.0.extract.trunc, label %default.unreachable42 [
    i8 9, label %block_len.exit34
    i8 8, label %10
    i8 10, label %11
    i8 11, label %12
    i8 12, label %13
    i8 13, label %10
  ]

10:                                               ; preds = %block_len.exit32, %block_len.exit32
  br label %block_len.exit34

11:                                               ; preds = %block_len.exit32
  br label %block_len.exit34

12:                                               ; preds = %block_len.exit32
  br label %block_len.exit34

13:                                               ; preds = %block_len.exit32
  br label %block_len.exit34

default.unreachable42:                            ; preds = %block_len.exit32
  unreachable

block_len.exit34:                                 ; preds = %block_len.exit32.thread40, %block_len.exit32.thread38, %block_len.exit32.thread36, %block_len.exit32.thread, %block_len.exit32, %10, %11, %12, %13
  %14 = phi ptr [ %9, %10 ], [ %9, %block_len.exit32 ], [ %5, %block_len.exit32.thread ], [ %6, %block_len.exit32.thread36 ], [ %9, %11 ], [ %7, %block_len.exit32.thread38 ], [ %9, %12 ], [ %8, %block_len.exit32.thread40 ], [ %9, %13 ]
  %.0.i33 = phi i64 [ 136, %10 ], [ 144, %block_len.exit32 ], [ 144, %block_len.exit32.thread ], [ 104, %block_len.exit32.thread36 ], [ 104, %11 ], [ 72, %block_len.exit32.thread38 ], [ 72, %12 ], [ 168, %block_len.exit32.thread40 ], [ 168, %13 ]
  tail call void @llvm.memcpy.p0.p0.i64(ptr noundef nonnull align 1 dereferenceable(1) %14, ptr noundef nonnull align 1 dereferenceable(1) %.sroa.528.0.copyload, i64 %.0.i33, i1 false)
  %15 = tail call noalias dereferenceable_or_null(200) ptr @calloc(i64 noundef 25, i64 noundef 8) #20
  %.sroa.0.sroa.025.0.insert.ext = and i64 %.sroa.0.0.copyload26, 255
  tail call void @llvm.memcpy.p0.p0.i64(ptr noundef nonnull align 8 dereferenceable(200) %15, ptr noundef nonnull align 8 dereferenceable(200) %.sroa.427.0.copyload, i64 200, i1 false)
  %16 = tail call noalias dereferenceable_or_null(32) ptr @malloc(i64 noundef 32) #21
  store i64 %.sroa.0.sroa.025.0.insert.ext, ptr %16, align 8
  %.sroa.0.sroa.4.0..sroa_idx = getelementptr inbounds nuw i8, ptr %16, i64 8
  store ptr %15, ptr %.sroa.0.sroa.4.0..sroa_idx, align 8, !tbaa !20
  %.sroa.4.0..sroa_idx = getelementptr inbounds nuw i8, ptr %16, i64 16
  store ptr %14, ptr %.sroa.4.0..sroa_idx, align 8, !tbaa !22
  %.sroa.5.0..sroa_idx = getelementptr inbounds nuw i8, ptr %16, i64 24
  store i64 %.sroa.629.0.copyload, ptr %.sroa.5.0..sroa_idx, align 8, !tbaa !10
  ret ptr %16
}